target datalayout = "e-m:e-p270:32:32-p271:32:32-p272:64:64-i64:64-i128:128-f80:128-n8:16:32:64-S128"
target triple = "x86_64-pc-linux-gnu"

%struct.pcapng_option_header = type { i16, i16 }
%struct.write_options_t = type { ptr, ptr, ptr }

; Function Attrs: nounwind uwtable
define internal i32 @pcapng_write_option_eofopt(ptr noundef %0, ptr noundef %1) #0 {
  %3 = alloca i32, align 4
  %4 = alloca ptr, align 8
  %5 = alloca ptr, align 8
  %6 = alloca %struct.pcapng_option_header, align 2
  store ptr %0, ptr %4, align 8
  store ptr %1, ptr %5, align 8
  %7 = getelementptr inbounds %struct.pcapng_option_header, ptr %6, i32 0, i32 0
  store i16 0, ptr %7, align 2
  %8 = getelementptr inbounds %struct.pcapng_option_header, ptr %6, i32 0, i32 1
  store i16 0, ptr %8, align 2
  %9 = load ptr, ptr %4, align 8
  %10 = load ptr, ptr %5, align 8
  %11 = call i32 @wtap_dump_file_write(ptr noundef %9, ptr noundef %6, i64 noundef 4, ptr noundef %10)
  %12 = icmp ne i32 %11, 0
  br i1 %12, label %14, label %13

13:                                               ; preds = %2
  store i32 0, ptr %3, align 4
  br label %15

14:                                               ; preds = %2
  store i32 1, ptr %3, align 4
  br label %15

15:                                               ; preds = %14, %13
  %16 = load i32, ptr %3, align 4
  ret i32 %16
}

; Function Attrs: nounwind uwtable
define internal i32 @write_options(ptr noundef %0, ptr noundef %1, ptr noundef %2, ptr noundef %3) #0 {
  %5 = alloca i32, align 4
  %6 = alloca ptr, align 8
  %7 = alloca ptr, align 8
  %8 = alloca ptr, align 8
  %9 = alloca ptr, align 8
  %10 = alloca %struct.write_options_t, align 8
  store ptr %0, ptr %6, align 8
  store ptr %1, ptr %7, align 8
  store ptr %2, ptr %8, align 8
  store ptr %3, ptr %9, align 8
  %11 = load ptr, ptr %6, align 8
  %12 = getelementptr inbounds %struct.write_options_t, ptr %10, i32 0, i32 0
  store ptr %11, ptr %12, align 8
  %13 = load ptr, ptr %9, align 8
  %14 = getelementptr inbounds %struct.write_options_t, ptr %10, i32 0, i32 1
  store ptr %13, ptr %14, align 8
  %15 = load ptr, ptr %8, align 8
  %16 = getelementptr inbounds %struct.write_options_t, ptr %10, i32 0, i32 2
  store ptr %15, ptr %16, align 8
  %17 = load ptr, ptr %7, align 8
  %18 = call i32 @wtap_block_foreach_option(ptr noundef %17, ptr noundef @write_block_option, ptr noundef %10)
  %19 = icmp ne i32 %18, 0
  br i1 %19, label %21, label %20

20:                                               ; preds = %4
  store i32 0, ptr %5, align 4
  br label %25

21:                                               ; preds = %4
  %22 = load ptr, ptr %6, align 8
  %23 = load ptr, ptr %9, align 8
  %24 = call i32 @pcapng_write_option_eofopt(ptr noundef %22, ptr noundef %23)
  store i32 %24, ptr %5, align 4
  br label %25

25:                                               ; preds = %21, %20
  %26 = load i32, ptr %5, align 4
  ret i32 %26
}