; Function Attrs: nounwind uwtable
define internal fastcc range(i32 0, 2) i32 @write_options(ptr noundef %0, ptr noundef %1, ptr noundef %2, ptr noundef %3) unnamed_addr #0 {
  %5 = alloca %struct.pcapng_option_header, align 2
  %6 = alloca %struct.write_options_t, align 8
  store ptr %0, ptr %6, align 8
  %7 = getelementptr inbounds nuw i8, ptr %6, i64 8
  store ptr %3, ptr %7, align 8
  %8 = getelementptr inbounds nuw i8, ptr %6, i64 16
  store ptr %2, ptr %8, align 8
  %9 = call i32 @wtap_block_foreach_option(ptr noundef %1, ptr noundef nonnull @write_block_option, ptr noundef nonnull %6) #16
  %.not = icmp eq i32 %9, 0
  br i1 %.not, label %13, label %10

10:                                               ; preds = %4
  call void @llvm.lifetime.start.p0(i64 4, ptr nonnull %5)
  store i16 0, ptr %5, align 2
  %11 = getelementptr inbounds nuw i8, ptr %5, i64 2
  store i16 0, ptr %11, align 2
  %12 = call i32 @wtap_dump_file_write(ptr noundef %0, ptr noundef nonnull %5, i64 noundef 4, ptr noundef %3) #16
  %.not.i = icmp ne i32 %12, 0
  %..i = zext i1 %.not.i to i32
  call void @llvm.lifetime.end.p0(i64 4, ptr nonnull %5)
  br label %13

13:                                               ; preds = %4, %10
  %.0 = phi i32 [ %..i, %10 ], [ 0, %4 ]
  ret i32 %.0
}